; ModuleID = '60/1868.c'
source_filename = "60/1868.c"
target datalayout = "e-m:e-p270:32:32-p271:32:32-p272:64:64-i64:64-f80:128-n8:16:32:64-S128"
target triple = "x86_64-pc-linux-gnu"

@.str = private unnamed_addr constant [3 x i8] c"%d\00", align 1
@.str.1 = private unnamed_addr constant [7 x i8] c"%d %d\0A\00", align 1
@.str.2 = private unnamed_addr constant [6 x i8] c"empty\00", align 1

; Function Attrs: noinline nounwind uwtable
define dso_local i32 @main() #0 {
  %1 = alloca i32, align 4
  %2 = alloca i32, align 4
  %3 = alloca i32, align 4
  %4 = alloca i32, align 4
  %5 = alloca i32, align 4
  %6 = alloca [10000 x i32], align 16
  %7 = alloca i32, align 4
  %8 = alloca i32, align 4
  store i32 0, i32* %1, align 4
  store i32 3, i32* %2, align 4
  %9 = call i32 (i8*, ...) @__isoc99_scanf(i8* getelementptr inbounds ([3 x i8], [3 x i8]* @.str, i64 0, i64 0), i32* %5)
  store i32 0, i32* %7, align 4
  br label %10

10:                                               ; preds = %42, %0
  %11 = load i32, i32* %2, align 4
  %12 = load i32, i32* %5, align 4
  %13 = icmp sle i32 %11, %12
  br i1 %13, label %14, label %45

14:                                               ; preds = %10
  store i32 2, i32* %4, align 4
  br label %15

15:                                               ; preds = %27, %14
  %16 = load i32, i32* %4, align 4
  %17 = load i32, i32* %2, align 4
  %18 = icmp slt i32 %16, %17
  br i1 %18, label %19, label %30

19:                                               ; preds = %15
  %20 = load i32, i32* %2, align 4
  %21 = load i32, i32* %4, align 4
  %22 = srem i32 %20, %21
  store i32 %22, i32* %3, align 4
  %23 = load i32, i32* %3, align 4
  %24 = icmp eq i32 %23, 0
  br i1 %24, label %25, label %26

25:                                               ; preds = %19
  br label %30

26:                                               ; preds = %19
  br label %27

27:                                               ; preds = %26
  %28 = load i32, i32* %4, align 4
  %29 = add nsw i32 %28, 1
  store i32 %29, i32* %4, align 4
  br label %15

30:                                               ; preds = %25, %15
  %31 = load i32, i32* %4, align 4
  %32 = load i32, i32* %2, align 4
  %33 = icmp eq i32 %31, %32
  br i1 %33, label %34, label %41

34:                                               ; preds = %30
  %35 = load i32, i32* %2, align 4
  %36 = load i32, i32* %7, align 4
  %37 = sext i32 %36 to i64
  %38 = getelementptr inbounds [10000 x i32], [10000 x i32]* %6, i64 0, i64 %37
  store i32 %35, i32* %38, align 4
  %39 = load i32, i32* %7, align 4
  %40 = add nsw i32 %39, 1
  store i32 %40, i32* %7, align 4
  br label %41

41:                                               ; preds = %34, %30
  br label %42

42:                                               ; preds = %41
  %43 = load i32, i32* %2, align 4
  %44 = add nsw i32 %43, 2
  store i32 %44, i32* %2, align 4
  br label %10

45:                                               ; preds = %10
  store i32 0, i32* %8, align 4
  br label %46

46:                                               ; preds = %74, %45
  %47 = load i32, i32* %8, align 4
  %48 = load i32, i32* %7, align 4
  %49 = icmp sle i32 %47, %48
  br i1 %49, label %50, label %77

50:                                               ; preds = %46
  %51 = load i32, i32* %8, align 4
  %52 = add nsw i32 %51, 1
  %53 = sext i32 %52 to i64
  %54 = getelementptr inbounds [10000 x i32], [10000 x i32]* %6, i64 0, i64 %53
  %55 = load i32, i32* %54, align 4
  %56 = load i32, i32* %8, align 4
  %57 = sext i32 %56 to i64
  %58 = getelementptr inbounds [10000 x i32], [10000 x i32]* %6, i64 0, i64 %57
  %59 = load i32, i32* %58, align 4
  %60 = sub nsw i32 %55, %59
  %61 = icmp eq i32 %60, 2
  br i1 %61, label %62, label %73

62:                                               ; preds = %50
  %63 = load i32, i32* %8, align 4
  %64 = sext i32 %63 to i64
  %65 = getelementptr inbounds [10000 x i32], [10000 x i32]* %6, i64 0, i64 %64
  %66 = load i32, i32* %65, align 4
  %67 = load i32, i32* %8, align 4
  %68 = add nsw i32 %67, 1
  %69 = sext i32 %68 to i64
  %70 = getelementptr inbounds [10000 x i32], [10000 x i32]* %6, i64 0, i64 %69
  %71 = load i32, i32* %70, align 4
  %72 = call i32 (i8*, ...) @printf(i8* getelementptr inbounds ([7 x i8], [7 x i8]* @.str.1, i64 0, i64 0), i32 %66, i32 %71)
  br label %73

73:                                               ; preds = %62, %50
  br label %74

74:                                               ; preds = %73
  %75 = load i32, i32* %8, align 4
  %76 = add nsw i32 %75, 1
  store i32 %76, i32* %8, align 4
  br label %46

77:                                               ; preds = %46
  %78 = load i32, i32* %5, align 4
  %79 = icmp slt i32 %78, 5
  br i1 %79, label %80, label %82

80:                                               ; preds = %77
  %81 = call i32 (i8*, ...) @printf(i8* getelementptr inbounds ([6 x i8], [6 x i8]* @.str.2, i64 0, i64 0))
  br label %82

82:                                               ; preds = %80, %77
  %83 = load i32, i32* %1, align 4
  ret i32 %83
}

declare dso_local i32 @__isoc99_scanf(i8*, ...) #1

declare dso_local i32 @printf(i8*, ...) #1


!llvm.module.flags = !{!0}
!llvm.ident = !{!1}

!0 = !{i32 1, !"wchar_size", i32 4}
!1 = !{!"clang version 10.0.0-4ubuntu1 "}
